target datalayout = "e-m:e-p270:32:32-p271:32:32-p272:64:64-i64:64-i128:128-f80:128-n8:16:32:64-S128"
target triple = "x86_64-pc-linux-gnu"

%struct._rio = type { ptr, ptr, ptr, ptr, ptr, i64, i64, i64, i64, %union.anon }
%union.anon = type { %struct.anon.2 }
%struct.anon.2 = type { ptr, i64, ptr, i64, i64 }
%struct.anon.0 = type { ptr, i64 }
%struct.sdshdr8 = type { i8, i8, i8, [0 x i8] }
%struct.sdshdr16 = type <{ i16, i16, i8, [0 x i8] }>
%struct.sdshdr32 = type <{ i32, i32, i8, [0 x i8] }>
%struct.sdshdr64 = type <{ i64, i64, i8, [0 x i8] }>

@.str = private unnamed_addr constant [29 x i8] c"rdbSaveObjectType(payload,o)\00", align 1
@.str.1 = private unnamed_addr constant [10 x i8] c"cluster.c\00", align 1
@.str.2 = private unnamed_addr constant [34 x i8] c"rdbSaveObject(payload,o,key,dbid)\00", align 1

; Function Attrs: inlinehint nounwind uwtable
define internal i64 @sdslen(ptr noundef %0) #5 {
  %2 = alloca i64, align 8
  %3 = alloca ptr, align 8
  %4 = alloca i8, align 1
  %5 = alloca i32, align 4
  store ptr %0, ptr %3, align 8, !tbaa !5
  call void @llvm.lifetime.start.p0(i64 1, ptr %4) #14
  %6 = load ptr, ptr %3, align 8, !tbaa !5
  %7 = getelementptr inbounds i8, ptr %6, i64 -1
  %8 = load i8, ptr %7, align 1, !tbaa !12
  store i8 %8, ptr %4, align 1, !tbaa !12
  %9 = load i8, ptr %4, align 1, !tbaa !12
  %10 = zext i8 %9 to i32
  %11 = and i32 %10, 7
  switch i32 %11, label %40 [
    i32 0, label %12
    i32 1, label %17
    i32 2, label %23
    i32 3, label %29
    i32 4, label %35
  ]

12:                                               ; preds = %1
  %13 = load i8, ptr %4, align 1, !tbaa !12
  %14 = zext i8 %13 to i32
  %15 = ashr i32 %14, 3
  %16 = sext i32 %15 to i64
  store i64 %16, ptr %2, align 8
  store i32 1, ptr %5, align 4
  br label %41

17:                                               ; preds = %1
  %18 = load ptr, ptr %3, align 8, !tbaa !5
  %19 = getelementptr inbounds i8, ptr %18, i64 -3
  %20 = getelementptr inbounds nuw %struct.sdshdr8, ptr %19, i32 0, i32 0
  %21 = load i8, ptr %20, align 1, !tbaa !12
  %22 = zext i8 %21 to i64
  store i64 %22, ptr %2, align 8
  store i32 1, ptr %5, align 4
  br label %41

23:                                               ; preds = %1
  %24 = load ptr, ptr %3, align 8, !tbaa !5
  %25 = getelementptr inbounds i8, ptr %24, i64 -5
  %26 = getelementptr inbounds nuw %struct.sdshdr16, ptr %25, i32 0, i32 0
  %27 = load i16, ptr %26, align 1, !tbaa !48
  %28 = zext i16 %27 to i64
  store i64 %28, ptr %2, align 8
  store i32 1, ptr %5, align 4
  br label %41

29:                                               ; preds = %1
  %30 = load ptr, ptr %3, align 8, !tbaa !5
  %31 = getelementptr inbounds i8, ptr %30, i64 -9
  %32 = getelementptr inbounds nuw %struct.sdshdr32, ptr %31, i32 0, i32 0
  %33 = load i32, ptr %32, align 1, !tbaa !10
  %34 = zext i32 %33 to i64
  store i64 %34, ptr %2, align 8
  store i32 1, ptr %5, align 4
  br label %41

35:                                               ; preds = %1
  %36 = load ptr, ptr %3, align 8, !tbaa !5
  %37 = getelementptr inbounds i8, ptr %36, i64 -17
  %38 = getelementptr inbounds nuw %struct.sdshdr64, ptr %37, i32 0, i32 0
  %39 = load i64, ptr %38, align 1, !tbaa !47
  store i64 %39, ptr %2, align 8
  store i32 1, ptr %5, align 4
  br label %41

40:                                               ; preds = %1
  store i64 0, ptr %2, align 8
  store i32 1, ptr %5, align 4
  br label %41

41:                                               ; preds = %40, %35, %29, %23, %17, %12
  call void @llvm.lifetime.end.p0(i64 1, ptr %4) #14
  %42 = load i64, ptr %2, align 8
  ret i64 %42
}

; Function Attrs: nounwind uwtable
define dso_local void @createDumpPayload(ptr noundef %0, ptr noundef %1, ptr noundef %2, i32 noundef %3) #0 {
  %5 = alloca ptr, align 8
  %6 = alloca ptr, align 8
  %7 = alloca ptr, align 8
  %8 = alloca i32, align 4
  %9 = alloca [2 x i8], align 1
  %10 = alloca i64, align 8
  store ptr %0, ptr %5, align 8, !tbaa !43
  store ptr %1, ptr %6, align 8, !tbaa !45
  store ptr %2, ptr %7, align 8, !tbaa !45
  store i32 %3, ptr %8, align 4, !tbaa !10
  call void @llvm.lifetime.start.p0(i64 2, ptr %9) #14
  call void @llvm.lifetime.start.p0(i64 8, ptr %10) #14
  %11 = load ptr, ptr %5, align 8, !tbaa !43
  %12 = call ptr @sdsempty()
  call void @rioInitWithBuffer(ptr noundef %11, ptr noundef %12)
  %13 = load ptr, ptr %5, align 8, !tbaa !43
  %14 = load ptr, ptr %6, align 8, !tbaa !45
  %15 = call i32 @rdbSaveObjectType(ptr noundef %13, ptr noundef %14)
  %16 = icmp ne i32 %15, 0
  %17 = xor i1 %16, true
  %18 = xor i1 %17, true
  %19 = zext i1 %18 to i32
  %20 = sext i32 %19 to i64
  %21 = call i64 @llvm.expect.i64(i64 %20, i64 1)
  %22 = icmp ne i64 %21, 0
  br i1 %22, label %23, label %24

23:                                               ; preds = %4
  br label %26

24:                                               ; preds = %4
  call void @_serverAssert(ptr noundef @.str, ptr noundef @.str.1, i32 noundef 77)
  call void @abort() #15
  unreachable

25:                                               ; No predecessors!
  br label %26

26:                                               ; preds = %25, %23
  %27 = load ptr, ptr %5, align 8, !tbaa !43
  %28 = load ptr, ptr %6, align 8, !tbaa !45
  %29 = load ptr, ptr %7, align 8, !tbaa !45
  %30 = load i32, ptr %8, align 4, !tbaa !10
  %31 = call i64 @rdbSaveObject(ptr noundef %27, ptr noundef %28, ptr noundef %29, i32 noundef %30)
  %32 = icmp ne i64 %31, 0
  %33 = xor i1 %32, true
  %34 = xor i1 %33, true
  %35 = zext i1 %34 to i32
  %36 = sext i32 %35 to i64
  %37 = call i64 @llvm.expect.i64(i64 %36, i64 1)
  %38 = icmp ne i64 %37, 0
  br i1 %38, label %39, label %40

39:                                               ; preds = %26
  br label %42

40:                                               ; preds = %26
  call void @_serverAssert(ptr noundef @.str.2, ptr noundef @.str.1, i32 noundef 78)
  call void @abort() #15
  unreachable

41:                                               ; No predecessors!
  br label %42

42:                                               ; preds = %41, %39
  %43 = getelementptr inbounds [2 x i8], ptr %9, i64 0, i64 0
  store i8 12, ptr %43, align 1, !tbaa !12
  %44 = getelementptr inbounds [2 x i8], ptr %9, i64 0, i64 1
  store i8 0, ptr %44, align 1, !tbaa !12
  %45 = load ptr, ptr %5, align 8, !tbaa !43
  %46 = getelementptr inbounds nuw %struct._rio, ptr %45, i32 0, i32 9
  %47 = getelementptr inbounds nuw %struct.anon.0, ptr %46, i32 0, i32 0
  %48 = load ptr, ptr %47, align 8, !tbaa !12
  %49 = getelementptr inbounds [2 x i8], ptr %9, i64 0, i64 0
  %50 = call ptr @sdscatlen(ptr noundef %48, ptr noundef %49, i64 noundef 2)
  %51 = load ptr, ptr %5, align 8, !tbaa !43
  %52 = getelementptr inbounds nuw %struct._rio, ptr %51, i32 0, i32 9
  %53 = getelementptr inbounds nuw %struct.anon.0, ptr %52, i32 0, i32 0
  store ptr %50, ptr %53, align 8, !tbaa !12
  %54 = load ptr, ptr %5, align 8, !tbaa !43
  %55 = getelementptr inbounds nuw %struct._rio, ptr %54, i32 0, i32 9
  %56 = getelementptr inbounds nuw %struct.anon.0, ptr %55, i32 0, i32 0
  %57 = load ptr, ptr %56, align 8, !tbaa !12
  %58 = load ptr, ptr %5, align 8, !tbaa !43
  %59 = getelementptr inbounds nuw %struct._rio, ptr %58, i32 0, i32 9
  %60 = getelementptr inbounds nuw %struct.anon.0, ptr %59, i32 0, i32 0
  %61 = load ptr, ptr %60, align 8, !tbaa !12
  %62 = call i64 @sdslen(ptr noundef %61)
  %63 = call i64 @crc64(i64 noundef 0, ptr noundef %57, i64 noundef %62)
  store i64 %63, ptr %10, align 8, !tbaa !47
  %64 = load ptr, ptr %5, align 8, !tbaa !43
  %65 = getelementptr inbounds nuw %struct._rio, ptr %64, i32 0, i32 9
  %66 = getelementptr inbounds nuw %struct.anon.0, ptr %65, i32 0, i32 0
  %67 = load ptr, ptr %66, align 8, !tbaa !12
  %68 = call ptr @sdscatlen(ptr noundef %67, ptr noundef %10, i64 noundef 8)
  %69 = load ptr, ptr %5, align 8, !tbaa !43
  %70 = getelementptr inbounds nuw %struct._rio, ptr %69, i32 0, i32 9
  %71 = getelementptr inbounds nuw %struct.anon.0, ptr %70, i32 0, i32 0
  store ptr %68, ptr %71, align 8, !tbaa !12
  call void @llvm.lifetime.end.p0(i64 8, ptr %10) #14
  call void @llvm.lifetime.end.p0(i64 2, ptr %9) #14
  ret void
}