; Function Attrs: nounwind uwtable
define dso_local void @createDumpPayload(ptr noundef %0, ptr noundef %1, ptr noundef %2, i32 noundef %3) local_unnamed_addr #0 {
  %5 = alloca [2 x i8], align 1
  %6 = alloca i64, align 8
  call void @llvm.lifetime.start.p0(i64 2, ptr nonnull %5) #16
  call void @llvm.lifetime.start.p0(i64 8, ptr nonnull %6) #16
  %7 = tail call ptr @sdsempty() #16
  tail call void @rioInitWithBuffer(ptr noundef %0, ptr noundef %7) #16
  %8 = tail call i32 @rdbSaveObjectType(ptr noundef %0, ptr noundef %1) #16
  %.not = icmp eq i32 %8, 0
  br i1 %.not, label %9, label %10, !prof !41

9:                                                ; preds = %4
  tail call void @_serverAssert(ptr noundef nonnull @.str, ptr noundef nonnull @.str.1, i32 noundef 77) #16
  tail call void @abort() #17
  unreachable

10:                                               ; preds = %4
  %11 = tail call i64 @rdbSaveObject(ptr noundef %0, ptr noundef %1, ptr noundef %2, i32 noundef %3) #16
  %.not12 = icmp eq i64 %11, 0
  br i1 %.not12, label %12, label %13, !prof !41

12:                                               ; preds = %10
  tail call void @_serverAssert(ptr noundef nonnull @.str.2, ptr noundef nonnull @.str.1, i32 noundef 78) #16
  tail call void @abort() #17
  unreachable

13:                                               ; preds = %10
  store i8 12, ptr %5, align 1, !tbaa !5
  %14 = getelementptr inbounds nuw i8, ptr %5, i64 1
  store i8 0, ptr %14, align 1, !tbaa !5
  %15 = getelementptr inbounds nuw i8, ptr %0, i64 72
  %16 = load ptr, ptr %15, align 8, !tbaa !5
  %17 = call ptr @sdscatlen(ptr noundef %16, ptr noundef nonnull %5, i64 noundef 2) #16
  store ptr %17, ptr %15, align 8, !tbaa !5
  %18 = getelementptr inbounds i8, ptr %17, i64 -1
  %19 = load i8, ptr %18, align 1, !tbaa !5
  %20 = zext i8 %19 to i32
  %21 = and i32 %20, 7
  switch i32 %21, label %sdslen.exit [
    i32 0, label %22
    i32 1, label %25
    i32 2, label %29
    i32 3, label %33
    i32 4, label %37
  ]

22:                                               ; preds = %13
  %23 = lshr i32 %20, 3
  %24 = zext nneg i32 %23 to i64
  br label %sdslen.exit

25:                                               ; preds = %13
  %26 = getelementptr inbounds i8, ptr %17, i64 -3
  %27 = load i8, ptr %26, align 1, !tbaa !5
  %28 = zext i8 %27 to i64
  br label %sdslen.exit

29:                                               ; preds = %13
  %30 = getelementptr inbounds i8, ptr %17, i64 -5
  %31 = load i16, ptr %30, align 1, !tbaa !42
  %32 = zext i16 %31 to i64
  br label %sdslen.exit

33:                                               ; preds = %13
  %34 = getelementptr inbounds i8, ptr %17, i64 -9
  %35 = load i32, ptr %34, align 1, !tbaa !44
  %36 = zext i32 %35 to i64
  br label %sdslen.exit

37:                                               ; preds = %13
  %38 = getelementptr inbounds i8, ptr %17, i64 -17
  %39 = load i64, ptr %38, align 1, !tbaa !45
  br label %sdslen.exit

sdslen.exit:                                      ; preds = %13, %22, %25, %29, %33, %37
  %.0.i = phi i64 [ %39, %37 ], [ %36, %33 ], [ %32, %29 ], [ %28, %25 ], [ %24, %22 ], [ 0, %13 ]
  %40 = call i64 @crc64(i64 noundef 0, ptr noundef nonnull %17, i64 noundef %.0.i) #16
  store i64 %40, ptr %6, align 8, !tbaa !45
  %41 = load ptr, ptr %15, align 8, !tbaa !5
  %42 = call ptr @sdscatlen(ptr noundef %41, ptr noundef nonnull %6, i64 noundef 8) #16
  store ptr %42, ptr %15, align 8, !tbaa !5
  call void @llvm.lifetime.end.p0(i64 8, ptr nonnull %6) #16
  call void @llvm.lifetime.end.p0(i64 2, ptr nonnull %5) #16
  ret void
}